; Function Attrs: mustprogress uwtable
define void @_ZN7Imf_3_48TimeCode8setHoursEi(ptr noundef nonnull align 4 captures(none) dereferenceable(8) %0, i32 noundef %1) local_unnamed_addr #1 align 2 personality ptr @__gxx_personality_v0 {
  %or.cond = icmp ugt i32 %1, 23
  br i1 %or.cond, label %3, label %8

3:                                                ; preds = %2
  %4 = tail call ptr @__cxa_allocate_exception(i64 72) #7
  invoke void @_ZN7Iex_3_46ArgExcC1EPKc(ptr noundef nonnull align 8 dereferenceable(72) %4, ptr noundef nonnull @.str)
          to label %5 unwind label %6

5:                                                ; preds = %3
  tail call void @__cxa_throw(ptr nonnull %4, ptr nonnull @_ZTIN7Iex_3_46ArgExcE, ptr nonnull @_ZN7Iex_3_46ArgExcD1Ev) #8
  unreachable

6:                                                ; preds = %3
  %7 = landingpad { ptr, i32 }
          cleanup
  tail call void @__cxa_free_exception(ptr nonnull %4) #7
  resume { ptr, i32 } %7

8:                                                ; preds = %2
  %.lhs.trunc.i = trunc nuw nsw i32 %1 to i8
  %9 = udiv i8 %.lhs.trunc.i, 10
  %narrow.i = mul nuw nsw i8 %9, 6
  %10 = zext nneg i8 %narrow.i to i32
  %11 = add nuw nsw i32 %1, %10
  %12 = load i32, ptr %0, align 4, !tbaa !9
  %13 = and i32 %12, -1056964609
  %14 = shl nuw nsw i32 %11, 24
  %15 = or i32 %13, %14
  store i32 %15, ptr %0, align 4, !tbaa !9
  ret void
}